; Function Attrs: nofree norecurse nosync nounwind memory(argmem: readwrite) uwtable
define void @gf_strong_reduce(ptr noundef captures(none) %0) local_unnamed_addr #0 {
  %2 = getelementptr inbounds nuw i8, ptr %0, i64 56
  %3 = load i64, ptr %2, align 8, !tbaa !7
  %4 = lshr i64 %3, 56
  %5 = getelementptr inbounds nuw i8, ptr %0, i64 32
  %6 = load i64, ptr %5, align 16, !tbaa !7
  %7 = add i64 %6, %4
  store i64 %7, ptr %5, align 16, !tbaa !7
  br label %8

8:                                                ; preds = %1, %8
  %9 = phi i64 [ %3, %1 ], [ %13, %8 ]
  %indvars.iv = phi i64 [ 7, %1 ], [ %indvars.iv.next, %8 ]
  %10 = getelementptr inbounds nuw [8 x i64], ptr %0, i64 0, i64 %indvars.iv
  %11 = and i64 %9, 72057594037927935
  %indvars.iv.next = add nsw i64 %indvars.iv, -1
  %12 = getelementptr inbounds nuw [8 x i64], ptr %0, i64 0, i64 %indvars.iv.next
  %13 = load i64, ptr %12, align 8, !tbaa !7
  %14 = lshr i64 %13, 56
  %15 = add nuw nsw i64 %14, %11
  store i64 %15, ptr %10, align 8, !tbaa !7
  %.not.i = icmp eq i64 %indvars.iv.next, 0
  br i1 %.not.i, label %gf_weak_reduce.exit, label %8, !llvm.loop !9

gf_weak_reduce.exit:                              ; preds = %8
  %16 = load i64, ptr %0, align 16, !tbaa !7
  %17 = and i64 %16, 72057594037927935
  %18 = add nuw nsw i64 %17, %4
  store i64 %18, ptr %0, align 16, !tbaa !7
  br label %19

19:                                               ; preds = %gf_weak_reduce.exit, %19
  %indvars.iv32 = phi i64 [ 0, %gf_weak_reduce.exit ], [ %indvars.iv.next33, %19 ]
  %.02327 = phi i128 [ 0, %gf_weak_reduce.exit ], [ %30, %19 ]
  %20 = getelementptr inbounds nuw [8 x i64], ptr %0, i64 0, i64 %indvars.iv32
  %21 = load i64, ptr %20, align 8, !tbaa !7
  %22 = zext i64 %21 to i128
  %23 = add nsw i128 %.02327, %22
  %24 = getelementptr inbounds nuw [8 x i64], ptr @MODULUS, i64 0, i64 %indvars.iv32
  %25 = load i64, ptr %24, align 8, !tbaa !7
  %26 = zext i64 %25 to i128
  %27 = sub nsw i128 %23, %26
  %28 = trunc i128 %27 to i64
  %29 = and i64 %28, 72057594037927935
  store i64 %29, ptr %20, align 8, !tbaa !7
  %30 = ashr i128 %27, 56
  %indvars.iv.next33 = add nuw nsw i64 %indvars.iv32, 1
  %exitcond.not = icmp eq i64 %indvars.iv.next33, 8
  br i1 %exitcond.not, label %31, label %19, !llvm.loop !11

31:                                               ; preds = %19
  %32 = trunc nsw i128 %30 to i64
  br label %33

33:                                               ; preds = %31, %33
  %indvars.iv35 = phi i64 [ 0, %31 ], [ %indvars.iv.next36, %33 ]
  %.02229 = phi i128 [ 0, %31 ], [ %45, %33 ]
  %34 = getelementptr inbounds nuw [8 x i64], ptr %0, i64 0, i64 %indvars.iv35
  %35 = load i64, ptr %34, align 8, !tbaa !7
  %36 = zext i64 %35 to i128
  %37 = add nuw nsw i128 %.02229, %36
  %38 = getelementptr inbounds nuw [8 x i64], ptr @MODULUS, i64 0, i64 %indvars.iv35
  %39 = load i64, ptr %38, align 8, !tbaa !7
  %40 = and i64 %39, %32
  %41 = zext i64 %40 to i128
  %42 = add nuw nsw i128 %37, %41
  %43 = trunc i128 %42 to i64
  %44 = and i64 %43, 72057594037927935
  store i64 %44, ptr %34, align 8, !tbaa !7
  %45 = lshr i128 %42, 56
  %indvars.iv.next36 = add nuw nsw i64 %indvars.iv35, 1
  %exitcond38.not = icmp eq i64 %indvars.iv.next36, 8
  br i1 %exitcond38.not, label %46, label %33, !llvm.loop !12

46:                                               ; preds = %33
  ret void
}